#include <math.h>
#include <stdio.h>
#include <stdlib.h>
#include <string.h>

double cao(int n)
{
int i;
double tmp,tt=1,ttt=2,s=0,ss=0;
for(i=1;i<=n;i++)
{ss=ttt/tt;tmp=tt;tt=ttt,ttt=ttt+tmp;
s=s+ss;}
return s;
}
int main()
{
int n,i,a[99];
double ccc;
scanf("%d",&n);
for(i=0;i<n;i++)
{scanf("%d",&a[i]);
}
for(i=0;i<n;i++)
{ccc=cao(a[i]);
printf("%.3lf\n",ccc);
}
return 0;
}